target datalayout = "e-m:e-p270:32:32-p271:32:32-p272:64:64-i64:64-i128:128-f80:128-n8:16:32:64-S128"
target triple = "x86_64-pc-linux-gnu"

; Function Attrs: mustprogress nounwind uwtable
define noundef i64 @_Z6atoilwPKw(ptr noundef %0) #1 {
  %2 = alloca ptr, align 8
  %3 = alloca i8, align 1
  %4 = alloca i64, align 8
  store ptr %0, ptr %2, align 8
  store i8 0, ptr %3, align 1
  %5 = load ptr, ptr %2, align 8
  %6 = load i32, ptr %5, align 4
  %7 = icmp eq i32 %6, 45
  br i1 %7, label %8, label %11

8:                                                ; preds = %1
  %9 = load ptr, ptr %2, align 8
  %10 = getelementptr inbounds i32, ptr %9, i32 1
  store ptr %10, ptr %2, align 8
  store i8 1, ptr %3, align 1
  br label %11

11:                                               ; preds = %8, %1
  store i64 0, ptr %4, align 8
  br label %12

12:                                               ; preds = %22, %11
  %13 = load ptr, ptr %2, align 8
  %14 = load i32, ptr %13, align 4
  %15 = icmp sge i32 %14, 48
  br i1 %15, label %16, label %20

16:                                               ; preds = %12
  %17 = load ptr, ptr %2, align 8
  %18 = load i32, ptr %17, align 4
  %19 = icmp sle i32 %18, 57
  br label %20

20:                                               ; preds = %16, %12
  %21 = phi i1 [ false, %12 ], [ %19, %16 ]
  br i1 %21, label %22, label %32

22:                                               ; preds = %20
  %23 = load i64, ptr %4, align 8
  %24 = mul i64 %23, 10
  %25 = load ptr, ptr %2, align 8
  %26 = load i32, ptr %25, align 4
  %27 = sub nsw i32 %26, 48
  %28 = sext i32 %27 to i64
  %29 = add i64 %24, %28
  store i64 %29, ptr %4, align 8
  %30 = load ptr, ptr %2, align 8
  %31 = getelementptr inbounds i32, ptr %30, i32 1
  store ptr %31, ptr %2, align 8
  br label %12, !llvm.loop !21

32:                                               ; preds = %20
  %33 = load i8, ptr %3, align 1
  %34 = trunc i8 %33 to i1
  br i1 %34, label %35, label %41

35:                                               ; preds = %32
  %36 = load i64, ptr %4, align 8
  %37 = icmp sge i64 %36, 0
  br i1 %37, label %38, label %41

38:                                               ; preds = %35
  %39 = load i64, ptr %4, align 8
  %40 = sub nsw i64 0, %39
  br label %43

41:                                               ; preds = %35, %32
  %42 = load i64, ptr %4, align 8
  br label %43

43:                                               ; preds = %41, %38
  %44 = phi i64 [ %40, %38 ], [ %42, %41 ]
  ret i64 %44
}

; Function Attrs: mustprogress uwtable
define noundef i32 @_Z5atoiwPKw(ptr noundef %0) #0 {
  %2 = alloca ptr, align 8
  store ptr %0, ptr %2, align 8
  %3 = load ptr, ptr %2, align 8
  %4 = call noundef i64 @_Z6atoilwPKw(ptr noundef %3)
  %5 = trunc i64 %4 to i32
  ret i32 %5
}