; Function Attrs: mustprogress nofree norecurse nosync nounwind willreturn memory(argmem: read) uwtable
define noundef i32 @_Z5atoiwPKw(ptr noundef readonly captures(none) %0) local_unnamed_addr #5 {
  %2 = load i32, ptr %0, align 4
  %3 = icmp eq i32 %2, 45
  %spec.select.idx.i = select i1 %3, i64 4, i64 0
  %spec.select.i = getelementptr inbounds nuw i8, ptr %0, i64 %spec.select.idx.i
  %4 = load i32, ptr %spec.select.i, align 4
  %5 = add i32 %4, -48
  %or.cond14.i = icmp ult i32 %5, 10
  br i1 %or.cond14.i, label %.lr.ph.i, label %_Z6atoilwPKw.exit

.lr.ph.i:                                         ; preds = %1, %.lr.ph.i
  %6 = phi i32 [ %12, %.lr.ph.i ], [ %4, %1 ]
  %.016.i = phi i64 [ %10, %.lr.ph.i ], [ 0, %1 ]
  %.115.i = phi ptr [ %11, %.lr.ph.i ], [ %spec.select.i, %1 ]
  %7 = mul i64 %.016.i, 10
  %8 = add nsw i32 %6, -48
  %9 = zext nneg i32 %8 to i64
  %10 = add i64 %7, %9
  %11 = getelementptr inbounds nuw i8, ptr %.115.i, i64 4
  %12 = load i32, ptr %11, align 4
  %13 = add i32 %12, -48
  %or.cond.i = icmp ult i32 %13, 10
  br i1 %or.cond.i, label %.lr.ph.i, label %_Z6atoilwPKw.exit, !llvm.loop !21

_Z6atoilwPKw.exit:                                ; preds = %.lr.ph.i, %1
  %.0.lcssa.i = phi i64 [ 0, %1 ], [ %10, %.lr.ph.i ]
  %14 = tail call i64 @llvm.abs.i64(i64 %.0.lcssa.i, i1 false)
  %15 = sub i64 0, %14
  %16 = select i1 %3, i64 %15, i64 %.0.lcssa.i
  %17 = trunc i64 %16 to i32
  ret i32 %17
}